target datalayout = "e-m:e-p270:32:32-p271:32:32-p272:64:64-i64:64-i128:128-f80:128-n8:16:32:64-S128"
target triple = "x86_64-unknown-linux-gnu"

%"struct.re2::PatchList" = type { i32, i32 }
%"struct.re2::Frag" = type <{ i32, %"struct.re2::PatchList", i8, [3 x i8] }>

@_ZN3re2L14kNullPatchListE = internal constant %"struct.re2::PatchList" zeroinitializer, align 4

; Function Attrs: mustprogress nounwind uwtable
define linkonce_odr void @_ZN3re24FragC2Ev(ptr noundef nonnull align 4 dereferenceable(13) %this) unnamed_addr #1 comdat align 2 {
entry:
  %this.addr = alloca ptr, align 8
  store ptr %this, ptr %this.addr, align 8
  %this1 = load ptr, ptr %this.addr, align 8
  %begin = getelementptr inbounds %"struct.re2::Frag", ptr %this1, i32 0, i32 0
  store i32 0, ptr %begin, align 4
  %end = getelementptr inbounds %"struct.re2::Frag", ptr %this1, i32 0, i32 1
  call void @llvm.memcpy.p0.p0.i64(ptr align 4 %end, ptr align 4 @_ZN3re2L14kNullPatchListE, i64 8, i1 false)
  %nullable = getelementptr inbounds %"struct.re2::Frag", ptr %this1, i32 0, i32 2
  store i8 0, ptr %nullable, align 4
  ret void
}

; Function Attrs: mustprogress uwtable
define { i64, i64 } @_ZN3re28Compiler7NoMatchEv(ptr noundef nonnull align 8 dereferenceable(212) %this) #0 align 2 {
entry:
  %retval = alloca %"struct.re2::Frag", align 4
  %this.addr = alloca ptr, align 8
  store ptr %this, ptr %this.addr, align 8
  call void @_ZN3re24FragC2Ev(ptr noundef nonnull align 4 dereferenceable(13) %retval)
  %0 = load { i64, i64 }, ptr %retval, align 4
  ret { i64, i64 } %0
}